; Function Attrs: mustprogress nofree nounwind willreturn memory(read, inaccessiblemem: none) uwtable
define noundef i32 @_Z24grpc_ssl_cmp_target_nameSt17basic_string_viewIcSt11char_traitsIcEES2_S2_S2_(i64 %0, ptr readonly captures(none) %1, i64 %2, ptr readonly captures(none) %3, i64 %4, ptr readonly captures(none) %5, ptr noundef readonly byval(%"class.std::basic_string_view") align 8 captures(none) %6) local_unnamed_addr #13 personality ptr @__gxx_personality_v0 {
  %.sroa.speculated.i = tail call i64 @llvm.umin.i64(i64 %2, i64 %0)
  %8 = icmp eq i64 %.sroa.speculated.i, 0
  br i1 %8, label %_ZNKSt17basic_string_viewIcSt11char_traitsIcEE7compareES2_.exit, label %_ZNSt11char_traitsIcE7compareEPKcS2_m.exit.i

_ZNSt11char_traitsIcE7compareEPKcS2_m.exit.i:     ; preds = %7
  %9 = tail call i32 @memcmp(ptr noundef %1, ptr noundef %3, i64 noundef %.sroa.speculated.i) #30
  %10 = icmp eq i32 %9, 0
  br i1 %10, label %_ZNKSt17basic_string_viewIcSt11char_traitsIcEE7compareES2_.exit, label %_ZNKSt17basic_string_viewIcSt11char_traitsIcEE7compareES2_.exit15

_ZNKSt17basic_string_viewIcSt11char_traitsIcEE7compareES2_.exit: ; preds = %7, %_ZNSt11char_traitsIcE7compareEPKcS2_m.exit.i
  %11 = sub i64 %0, %2
  %spec.select7.i.i = tail call i64 @llvm.smax.i64(i64 %11, i64 -2147483648)
  %.08.i.i = tail call i64 @llvm.smin.i64(i64 %spec.select7.i.i, i64 2147483647)
  %.0.i4.i = trunc nsw i64 %.08.i.i to i32
  %.not = icmp eq i64 %0, %2
  br i1 %.not, label %12, label %_ZNKSt17basic_string_viewIcSt11char_traitsIcEE7compareES2_.exit15

12:                                               ; preds = %_ZNKSt17basic_string_viewIcSt11char_traitsIcEE7compareES2_.exit
  %.sroa.0.0.copyload = load i64, ptr %6, align 8, !tbaa !15
  %.sroa.speculated.i8 = tail call i64 @llvm.umin.i64(i64 %.sroa.0.0.copyload, i64 %4)
  %13 = icmp eq i64 %.sroa.speculated.i8, 0
  br i1 %13, label %_ZNSt11char_traitsIcE7compareEPKcS2_m.exit.thread.i11, label %_ZNSt11char_traitsIcE7compareEPKcS2_m.exit.i9

_ZNSt11char_traitsIcE7compareEPKcS2_m.exit.i9:    ; preds = %12
  %.sroa.2.0..sroa_idx = getelementptr inbounds nuw i8, ptr %6, i64 8
  %.sroa.2.0.copyload = load ptr, ptr %.sroa.2.0..sroa_idx, align 8, !tbaa !7
  %14 = tail call i32 @memcmp(ptr noundef %5, ptr noundef %.sroa.2.0.copyload, i64 noundef %.sroa.speculated.i8) #30
  %15 = icmp eq i32 %14, 0
  br i1 %15, label %_ZNSt11char_traitsIcE7compareEPKcS2_m.exit.thread.i11, label %_ZNKSt17basic_string_viewIcSt11char_traitsIcEE7compareES2_.exit15

_ZNSt11char_traitsIcE7compareEPKcS2_m.exit.thread.i11: ; preds = %_ZNSt11char_traitsIcE7compareEPKcS2_m.exit.i9, %12
  %16 = sub i64 %4, %.sroa.0.0.copyload
  %spec.select7.i.i12 = tail call i64 @llvm.smax.i64(i64 %16, i64 -2147483648)
  %.08.i.i13 = tail call i64 @llvm.smin.i64(i64 %spec.select7.i.i12, i64 2147483647)
  %.0.i4.i14 = trunc nsw i64 %.08.i.i13 to i32
  br label %_ZNKSt17basic_string_viewIcSt11char_traitsIcEE7compareES2_.exit15

_ZNKSt17basic_string_viewIcSt11char_traitsIcEE7compareES2_.exit15: ; preds = %_ZNSt11char_traitsIcE7compareEPKcS2_m.exit.i, %_ZNSt11char_traitsIcE7compareEPKcS2_m.exit.thread.i11, %_ZNSt11char_traitsIcE7compareEPKcS2_m.exit.i9, %_ZNKSt17basic_string_viewIcSt11char_traitsIcEE7compareES2_.exit
  %.0 = phi i32 [ %.0.i4.i, %_ZNKSt17basic_string_viewIcSt11char_traitsIcEE7compareES2_.exit ], [ %.0.i4.i14, %_ZNSt11char_traitsIcE7compareEPKcS2_m.exit.thread.i11 ], [ %14, %_ZNSt11char_traitsIcE7compareEPKcS2_m.exit.i9 ], [ %9, %_ZNSt11char_traitsIcE7compareEPKcS2_m.exit.i ]
  ret i32 %.0
}